; Function Attrs: nounwind uwtable
define internal range(i32 0, 2) i32 @test_verify_one_sct() #0 {
  %1 = tail call fastcc ptr @set_up(ptr noundef nonnull @.str.7)
  %2 = icmp eq ptr %1, null
  br i1 %2, label %16, label %3

3:                                                ; preds = %0
  %4 = load ptr, ptr @certs_dir, align 8, !tbaa !4
  %5 = getelementptr inbounds nuw i8, ptr %1, i64 24
  store ptr %4, ptr %5, align 8, !tbaa !9
  %6 = getelementptr inbounds nuw i8, ptr %1, i64 32
  store ptr @.str.45, ptr %6, align 8, !tbaa !15
  %7 = getelementptr inbounds nuw i8, ptr %1, i64 40
  store ptr @.str.46, ptr %7, align 8, !tbaa !16
  %8 = getelementptr inbounds nuw i8, ptr %1, i64 52
  store i32 1, ptr %8, align 4, !tbaa !22
  %9 = getelementptr inbounds nuw i8, ptr %1, i64 48
  store i32 1, ptr %9, align 8, !tbaa !17
  %10 = getelementptr inbounds nuw i8, ptr %1, i64 96
  store i32 1, ptr %10, align 8, !tbaa !23
  %11 = tail call fastcc i32 @execute_cert_test(ptr noundef %1)
  %12 = getelementptr inbounds nuw i8, ptr %1, i64 16
  %13 = load ptr, ptr %12, align 8, !tbaa !18
  tail call void @CTLOG_STORE_free(ptr noundef %13) #8
  %14 = getelementptr inbounds nuw i8, ptr %1, i64 72
  %15 = load ptr, ptr %14, align 8, !tbaa !19
  tail call void @SCT_LIST_free(ptr noundef %15) #8
  tail call void @CRYPTO_free(ptr noundef nonnull %1, ptr noundef nonnull @.str.16, i32 noundef 88) #8
  br label %16

16:                                               ; preds = %0, %3
  %.011 = phi i32 [ %11, %3 ], [ 0, %0 ]
  ret i32 %.011
}